; Function Attrs: null_pointer_is_valid sspstrong uwtable
define void @reset_srt_table(ptr noundef readonly captures(none) %0) local_unnamed_addr #2 {
  %2 = getelementptr inbounds nuw i8, ptr %0, i64 8
  %3 = load i32, ptr %2, align 8
  %.not = icmp eq i32 %3, 0
  br i1 %.not, label %._crit_edge, label %.lr.ph

.lr.ph:                                           ; preds = %1, %reset_srt_table_data.exit
  %4 = phi i32 [ %18, %reset_srt_table_data.exit ], [ %3, %1 ]
  %indvars.iv = phi i64 [ %indvars.iv.next, %reset_srt_table_data.exit ], [ 0, %1 ]
  %5 = load ptr, ptr %0, align 8
  %6 = getelementptr ptr, ptr %5, i64 %indvars.iv
  %7 = load ptr, ptr %6, align 8
  %8 = getelementptr inbounds nuw i8, ptr %7, i64 24
  %9 = load i32, ptr %8, align 8
  %10 = icmp sgt i32 %9, 0
  br i1 %10, label %.lr.ph.i, label %reset_srt_table_data.exit

.lr.ph.i:                                         ; preds = %.lr.ph
  %11 = getelementptr inbounds nuw i8, ptr %7, i64 40
  br label %12

12:                                               ; preds = %12, %.lr.ph.i
  %indvars.iv.i = phi i64 [ 0, %.lr.ph.i ], [ %indvars.iv.next.i, %12 ]
  %13 = load ptr, ptr %11, align 8
  %14 = getelementptr %struct._srt_procedure_t, ptr %13, i64 %indvars.iv.i, i32 1
  tail call void @time_stat_init(ptr noundef %14)
  %indvars.iv.next.i = add nuw nsw i64 %indvars.iv.i, 1
  %15 = load i32, ptr %8, align 8
  %16 = sext i32 %15 to i64
  %17 = icmp slt i64 %indvars.iv.next.i, %16
  br i1 %17, label %12, label %reset_srt_table_data.exit.loopexit, !llvm.loop !9

reset_srt_table_data.exit.loopexit:               ; preds = %12
  %.pre = load i32, ptr %2, align 8
  br label %reset_srt_table_data.exit

reset_srt_table_data.exit:                        ; preds = %reset_srt_table_data.exit.loopexit, %.lr.ph
  %18 = phi i32 [ %.pre, %reset_srt_table_data.exit.loopexit ], [ %4, %.lr.ph ]
  %indvars.iv.next = add nuw nsw i64 %indvars.iv, 1
  %19 = zext i32 %18 to i64
  %20 = icmp samesign ult i64 %indvars.iv.next, %19
  br i1 %20, label %.lr.ph, label %._crit_edge, !llvm.loop !10

._crit_edge:                                      ; preds = %reset_srt_table_data.exit, %1
  ret void
}